target datalayout = "e-m:e-p270:32:32-p271:32:32-p272:64:64-i64:64-i128:128-f80:128-n8:16:32:64-S128"
target triple = "x86_64-pc-linux-gnu"

%struct.Vec_Int_t_ = type { i32, i32, ptr }
%struct.Vta_Man_t_ = type { ptr, ptr, i32, i32, i32, ptr, ptr, ptr, i32, i32, ptr, i32, i32, i32, ptr, ptr, i32, i32, ptr, ptr, ptr, i64, i64, i64, i64 }
%struct.Vta_Obj_t_ = type { i32, i32, i32, i32 }
%struct.Gia_Man_t_ = type { ptr, ptr, i32, i32, i32, i32, ptr, ptr, i32, i32, i32, ptr, ptr, %struct.Vec_Int_t_, %struct.Vec_Int_t_, i32, i32, i32, %struct.Vec_Int_t_, ptr, ptr, ptr, i32, i32, i32, i32, ptr, ptr, ptr, ptr, ptr, i32, i32, ptr, i32, ptr, ptr, ptr, ptr, ptr, ptr, ptr, ptr, ptr, ptr, ptr, ptr, ptr, ptr, ptr, ptr, ptr, ptr, %struct.Vec_Int_t_, %struct.Vec_Int_t_, ptr, ptr, ptr, ptr, ptr, ptr, ptr, ptr, ptr, ptr, ptr, ptr, ptr, ptr, ptr, ptr, ptr, ptr, ptr, ptr, ptr, i32, float, float, ptr, ptr, i32, ptr, ptr, ptr, ptr, ptr, ptr, ptr, ptr, ptr, ptr, ptr, ptr, ptr, ptr, ptr, i64, i64, ptr, ptr, i32, i32, i32, i32, i32, i32, i32, i32, i32, i32, i32, i32, ptr, ptr, ptr, ptr, ptr, ptr, ptr, ptr, i32, i32, i32, ptr, i32, i32, ptr, ptr, ptr, ptr, ptr, ptr, i32, i32, ptr, %struct.Vec_Int_t_, %struct.Vec_Int_t_, %struct.Vec_Int_t_, ptr, ptr, ptr, i32, i32, i32, i32, ptr, ptr, ptr, ptr, ptr }
%struct.Gia_Obj_t_ = type <{ i64, i32 }>
%struct.sat_solver2_t = type { i32, i32, i32, i32, i32, double, double, i32, i32, i32, i32, ptr, ptr, i32, i32, i32, i32, i32, i32, i32, i32, i32, i32, i32, %struct.Sat_Mem_t_, ptr, %struct.veci_t, %struct.veci_t, i32, i32, i32, ptr, ptr, ptr, ptr, ptr, ptr, ptr, ptr, %struct.veci_t, %struct.veci_t, %struct.veci_t, %struct.veci_t, %struct.veci_t, %struct.veci_t, %struct.veci_t, %struct.veci_t, %struct.veci_t, %struct.veci_t, ptr, %struct.veci_t, i32, i32, ptr, double, ptr, i32, %struct.stats_t, i64, i64, i64 }
%struct.Sat_Mem_t_ = type { [2 x i32], [2 x i32], [2 x i32], [2 x i32], i32, i32, i32, i32, ptr }
%struct.veci_t = type { i32, i32, ptr }
%struct.stats_t = type { i32, i32, i32, i64, i64, i64, i64, i64, i64, i64 }

; Function Attrs: inlinehint nounwind uwtable
define internal i32 @Vec_IntEntry(ptr noundef %0, i32 noundef %1) #2 {
  %3 = alloca ptr, align 8
  %4 = alloca i32, align 4
  store ptr %0, ptr %3, align 8, !tbaa !3
  store i32 %1, ptr %4, align 4, !tbaa !8
  %5 = load ptr, ptr %3, align 8, !tbaa !3
  %6 = getelementptr inbounds nuw %struct.Vec_Int_t_, ptr %5, i32 0, i32 2
  %7 = load ptr, ptr %6, align 8, !tbaa !15
  %8 = load i32, ptr %4, align 4, !tbaa !8
  %9 = sext i32 %8 to i64
  %10 = getelementptr inbounds i32, ptr %7, i64 %9
  %11 = load i32, ptr %10, align 4, !tbaa !8
  ret i32 %11
}

; Function Attrs: inlinehint nounwind uwtable
define internal i32 @Vec_IntSize(ptr noundef %0) #2 {
  %2 = alloca ptr, align 8
  store ptr %0, ptr %2, align 8, !tbaa !3
  %3 = load ptr, ptr %2, align 8, !tbaa !3
  %4 = getelementptr inbounds nuw %struct.Vec_Int_t_, ptr %3, i32 0, i32 1
  %5 = load i32, ptr %4, align 4, !tbaa !22
  ret i32 %5
}

; Function Attrs: inlinehint nounwind uwtable
define internal ptr @Gia_ManCo(ptr noundef %0, i32 noundef %1) #2 {
  %3 = alloca ptr, align 8
  %4 = alloca i32, align 4
  store ptr %0, ptr %3, align 8, !tbaa !67
  store i32 %1, ptr %4, align 4, !tbaa !8
  %5 = load ptr, ptr %3, align 8, !tbaa !67
  %6 = load ptr, ptr %3, align 8, !tbaa !67
  %7 = getelementptr inbounds nuw %struct.Gia_Man_t_, ptr %6, i32 0, i32 12
  %8 = load ptr, ptr %7, align 8, !tbaa !172
  %9 = load i32, ptr %4, align 4, !tbaa !8
  %10 = call i32 @Vec_IntEntry(ptr noundef %8, i32 noundef %9)
  %11 = call ptr @Gia_ManObj(ptr noundef %5, i32 noundef %10)
  ret ptr %11
}

; Function Attrs: inlinehint nounwind uwtable
define internal i32 @Gia_ManCiNum(ptr noundef %0) #2 {
  %2 = alloca ptr, align 8
  store ptr %0, ptr %2, align 8, !tbaa !67
  %3 = load ptr, ptr %2, align 8, !tbaa !67
  %4 = getelementptr inbounds nuw %struct.Gia_Man_t_, ptr %3, i32 0, i32 11
  %5 = load ptr, ptr %4, align 8, !tbaa !78
  %6 = call i32 @Vec_IntSize(ptr noundef %5)
  ret i32 %6
}

; Function Attrs: inlinehint nounwind uwtable
define internal i32 @Gia_ManCoNum(ptr noundef %0) #2 {
  %2 = alloca ptr, align 8
  store ptr %0, ptr %2, align 8, !tbaa !67
  %3 = load ptr, ptr %2, align 8, !tbaa !67
  %4 = getelementptr inbounds nuw %struct.Gia_Man_t_, ptr %3, i32 0, i32 12
  %5 = load ptr, ptr %4, align 8, !tbaa !172
  %6 = call i32 @Vec_IntSize(ptr noundef %5)
  ret i32 %6
}

; Function Attrs: inlinehint nounwind uwtable
define internal i32 @Gia_ManPiNum(ptr noundef %0) #2 {
  %2 = alloca ptr, align 8
  store ptr %0, ptr %2, align 8, !tbaa !67
  %3 = load ptr, ptr %2, align 8, !tbaa !67
  %4 = getelementptr inbounds nuw %struct.Gia_Man_t_, ptr %3, i32 0, i32 11
  %5 = load ptr, ptr %4, align 8, !tbaa !78
  %6 = call i32 @Vec_IntSize(ptr noundef %5)
  %7 = load ptr, ptr %2, align 8, !tbaa !67
  %8 = getelementptr inbounds nuw %struct.Gia_Man_t_, ptr %7, i32 0, i32 2
  %9 = load i32, ptr %8, align 8, !tbaa !68
  %10 = sub nsw i32 %6, %9
  ret i32 %10
}

; Function Attrs: inlinehint nounwind uwtable
define internal i32 @Gia_ObjCioId(ptr noundef %0) #2 {
  %2 = alloca ptr, align 8
  store ptr %0, ptr %2, align 8, !tbaa !60
  %3 = load ptr, ptr %2, align 8, !tbaa !60
  %4 = load i64, ptr %3, align 4
  %5 = lshr i64 %4, 32
  %6 = and i64 %5, 536870911
  %7 = trunc i64 %6 to i32
  ret i32 %7
}

; Function Attrs: inlinehint nounwind uwtable
define internal i32 @Gia_ObjIsCi(ptr noundef %0) #2 {
  %2 = alloca ptr, align 8
  store ptr %0, ptr %2, align 8, !tbaa !60
  %3 = load ptr, ptr %2, align 8, !tbaa !60
  %4 = load i64, ptr %3, align 4
  %5 = lshr i64 %4, 31
  %6 = and i64 %5, 1
  %7 = trunc i64 %6 to i32
  %8 = icmp ne i32 %7, 0
  br i1 %8, label %9, label %15

9:                                                ; preds = %1
  %10 = load ptr, ptr %2, align 8, !tbaa !60
  %11 = load i64, ptr %10, align 4
  %12 = and i64 %11, 536870911
  %13 = trunc i64 %12 to i32
  %14 = icmp eq i32 %13, 536870911
  br label %15

15:                                               ; preds = %9, %1
  %16 = phi i1 [ false, %1 ], [ %14, %9 ]
  %17 = zext i1 %16 to i32
  ret i32 %17
}

; Function Attrs: inlinehint nounwind uwtable
define internal ptr @Gia_ObjRoToRi(ptr noundef %0, ptr noundef %1) #2 {
  %3 = alloca ptr, align 8
  %4 = alloca ptr, align 8
  store ptr %0, ptr %3, align 8, !tbaa !67
  store ptr %1, ptr %4, align 8, !tbaa !60
  %5 = load ptr, ptr %3, align 8, !tbaa !67
  %6 = load ptr, ptr %3, align 8, !tbaa !67
  %7 = call i32 @Gia_ManCoNum(ptr noundef %6)
  %8 = load ptr, ptr %3, align 8, !tbaa !67
  %9 = call i32 @Gia_ManCiNum(ptr noundef %8)
  %10 = sub nsw i32 %7, %9
  %11 = load ptr, ptr %4, align 8, !tbaa !60
  %12 = call i32 @Gia_ObjCioId(ptr noundef %11)
  %13 = add nsw i32 %10, %12
  %14 = call ptr @Gia_ManCo(ptr noundef %5, i32 noundef %13)
  ret ptr %14
}

; Function Attrs: inlinehint nounwind uwtable
define internal i32 @Gia_ObjIsRo(ptr noundef %0, ptr noundef %1) #2 {
  %3 = alloca ptr, align 8
  %4 = alloca ptr, align 8
  store ptr %0, ptr %3, align 8, !tbaa !67
  store ptr %1, ptr %4, align 8, !tbaa !60
  %5 = load ptr, ptr %4, align 8, !tbaa !60
  %6 = call i32 @Gia_ObjIsCi(ptr noundef %5)
  %7 = icmp ne i32 %6, 0
  br i1 %7, label %8, label %14

8:                                                ; preds = %2
  %9 = load ptr, ptr %4, align 8, !tbaa !60
  %10 = call i32 @Gia_ObjCioId(ptr noundef %9)
  %11 = load ptr, ptr %3, align 8, !tbaa !67
  %12 = call i32 @Gia_ManPiNum(ptr noundef %11)
  %13 = icmp sge i32 %10, %12
  br label %14

14:                                               ; preds = %8, %2
  %15 = phi i1 [ false, %2 ], [ %13, %8 ]
  %16 = zext i1 %15 to i32
  ret i32 %16
}

; Function Attrs: inlinehint nounwind uwtable
define internal i32 @Gia_ObjIsAnd(ptr noundef %0) #2 {
  %2 = alloca ptr, align 8
  store ptr %0, ptr %2, align 8, !tbaa !60
  %3 = load ptr, ptr %2, align 8, !tbaa !60
  %4 = load i64, ptr %3, align 4
  %5 = lshr i64 %4, 31
  %6 = and i64 %5, 1
  %7 = trunc i64 %6 to i32
  %8 = icmp ne i32 %7, 0
  br i1 %8, label %15, label %9

9:                                                ; preds = %1
  %10 = load ptr, ptr %2, align 8, !tbaa !60
  %11 = load i64, ptr %10, align 4
  %12 = and i64 %11, 536870911
  %13 = trunc i64 %12 to i32
  %14 = icmp ne i32 %13, 536870911
  br label %15

15:                                               ; preds = %9, %1
  %16 = phi i1 [ false, %1 ], [ %14, %9 ]
  %17 = zext i1 %16 to i32
  ret i32 %17
}

; Function Attrs: inlinehint nounwind uwtable
define internal ptr @Gia_ManObj(ptr noundef %0, i32 noundef %1) #2 {
  %3 = alloca ptr, align 8
  %4 = alloca i32, align 4
  store ptr %0, ptr %3, align 8, !tbaa !67
  store i32 %1, ptr %4, align 4, !tbaa !8
  %5 = load ptr, ptr %3, align 8, !tbaa !67
  %6 = getelementptr inbounds nuw %struct.Gia_Man_t_, ptr %5, i32 0, i32 6
  %7 = load ptr, ptr %6, align 8, !tbaa !80
  %8 = load i32, ptr %4, align 4, !tbaa !8
  %9 = sext i32 %8 to i64
  %10 = getelementptr inbounds %struct.Gia_Obj_t_, ptr %7, i64 %9
  ret ptr %10
}

; Function Attrs: inlinehint nounwind uwtable
define internal i32 @sat_solver2_var_value(ptr noundef %0, i32 noundef %1) #2 {
  %3 = alloca ptr, align 8
  %4 = alloca i32, align 4
  store ptr %0, ptr %3, align 8, !tbaa !81
  store i32 %1, ptr %4, align 4, !tbaa !8
  %5 = load ptr, ptr %3, align 8, !tbaa !81
  %6 = getelementptr inbounds nuw %struct.sat_solver2_t, ptr %5, i32 0, i32 38
  %7 = load ptr, ptr %6, align 8, !tbaa !82
  %8 = load i32, ptr %4, align 4, !tbaa !8
  %9 = sext i32 %8 to i64
  %10 = getelementptr inbounds i32, ptr %7, i64 %9
  %11 = load i32, ptr %10, align 4, !tbaa !8
  %12 = icmp eq i32 %11, 1
  %13 = zext i1 %12 to i32
  ret i32 %13
}

; Function Attrs: inlinehint nounwind uwtable
define internal ptr @Vta_ManObj(ptr noundef %0, i32 noundef %1) #2 {
  %3 = alloca ptr, align 8
  %4 = alloca i32, align 4
  store ptr %0, ptr %3, align 8, !tbaa !37
  store i32 %1, ptr %4, align 4, !tbaa !8
  %5 = load i32, ptr %4, align 4, !tbaa !8
  %6 = icmp ne i32 %5, 0
  br i1 %6, label %7, label %14

7:                                                ; preds = %2
  %8 = load ptr, ptr %3, align 8, !tbaa !37
  %9 = getelementptr inbounds nuw %struct.Vta_Man_t_, ptr %8, i32 0, i32 6
  %10 = load ptr, ptr %9, align 8, !tbaa !79
  %11 = load i32, ptr %4, align 4, !tbaa !8
  %12 = sext i32 %11 to i64
  %13 = getelementptr inbounds %struct.Vta_Obj_t_, ptr %10, i64 %12
  br label %15

14:                                               ; preds = %2
  br label %15

15:                                               ; preds = %14, %7
  %16 = phi ptr [ %13, %7 ], [ null, %14 ]
  ret ptr %16
}

; Function Attrs: nounwind uwtable
define void @Vta_ManSatVerify(ptr noundef %0) #0 {
  %2 = alloca ptr, align 8
  %3 = alloca ptr, align 8
  %4 = alloca ptr, align 8
  %5 = alloca ptr, align 8
  %6 = alloca ptr, align 8
  %7 = alloca i32, align 4
  store ptr %0, ptr %2, align 8, !tbaa !37
  call void @llvm.lifetime.start.p0(i64 8, ptr %3) #13
  call void @llvm.lifetime.start.p0(i64 8, ptr %4) #13
  call void @llvm.lifetime.start.p0(i64 8, ptr %5) #13
  call void @llvm.lifetime.start.p0(i64 8, ptr %6) #13
  call void @llvm.lifetime.start.p0(i64 4, ptr %7) #13
  store i32 1, ptr %7, align 4, !tbaa !8
  br label %8

8:                                                ; preds = %36, %1
  %9 = load i32, ptr %7, align 4, !tbaa !8
  %10 = load ptr, ptr %2, align 8, !tbaa !37
  %11 = getelementptr inbounds nuw %struct.Vta_Man_t_, ptr %10, i32 0, i32 2
  %12 = load i32, ptr %11, align 8, !tbaa !56
  %13 = icmp slt i32 %9, %12
  br i1 %13, label %14, label %19

14:                                               ; preds = %8
  %15 = load ptr, ptr %2, align 8, !tbaa !37
  %16 = load i32, ptr %7, align 4, !tbaa !8
  %17 = call ptr @Vta_ManObj(ptr noundef %15, i32 noundef %16)
  store ptr %17, ptr %3, align 8, !tbaa !57
  %18 = icmp ne ptr %17, null
  br label %19

19:                                               ; preds = %14, %8
  %20 = phi i1 [ false, %8 ], [ %18, %14 ]
  br i1 %20, label %21, label %39

21:                                               ; preds = %19
  %22 = load ptr, ptr %2, align 8, !tbaa !37
  %23 = getelementptr inbounds nuw %struct.Vta_Man_t_, ptr %22, i32 0, i32 19
  %24 = load ptr, ptr %23, align 8, !tbaa !62
  %25 = load i32, ptr %7, align 4, !tbaa !8
  %26 = call i32 @sat_solver2_var_value(ptr noundef %24, i32 noundef %25)
  %27 = icmp ne i32 %26, 0
  %28 = select i1 %27, i32 2, i32 1
  %29 = load ptr, ptr %3, align 8, !tbaa !57
  %30 = getelementptr inbounds nuw %struct.Vta_Obj_t_, ptr %29, i32 0, i32 3
  %31 = load i32, ptr %30, align 4
  %32 = and i32 %28, 3
  %33 = shl i32 %32, 28
  %34 = and i32 %31, -805306369
  %35 = or i32 %34, %33
  store i32 %35, ptr %30, align 4
  br label %36

36:                                               ; preds = %21
  %37 = load i32, ptr %7, align 4, !tbaa !8
  %38 = add nsw i32 %37, 1
  store i32 %38, ptr %7, align 4, !tbaa !8
  br label %8, !llvm.loop !102

39:                                               ; preds = %19
  store i32 1, ptr %7, align 4, !tbaa !8
  br label %40

40:                                               ; preds = %136, %39
  %41 = load i32, ptr %7, align 4, !tbaa !8
  %42 = load ptr, ptr %2, align 8, !tbaa !37
  %43 = getelementptr inbounds nuw %struct.Vta_Man_t_, ptr %42, i32 0, i32 2
  %44 = load i32, ptr %43, align 8, !tbaa !56
  %45 = icmp slt i32 %41, %44
  br i1 %45, label %46, label %60

46:                                               ; preds = %40
  %47 = load ptr, ptr %2, align 8, !tbaa !37
  %48 = load i32, ptr %7, align 4, !tbaa !8
  %49 = call ptr @Vta_ManObj(ptr noundef %47, i32 noundef %48)
  store ptr %49, ptr %3, align 8, !tbaa !57
  %50 = icmp ne ptr %49, null
  br i1 %50, label %51, label %60

51:                                               ; preds = %46
  %52 = load ptr, ptr %2, align 8, !tbaa !37
  %53 = getelementptr inbounds nuw %struct.Vta_Man_t_, ptr %52, i32 0, i32 0
  %54 = load ptr, ptr %53, align 8, !tbaa !39
  %55 = load ptr, ptr %3, align 8, !tbaa !57
  %56 = getelementptr inbounds nuw %struct.Vta_Obj_t_, ptr %55, i32 0, i32 0
  %57 = load i32, ptr %56, align 4, !tbaa !58
  %58 = call ptr @Gia_ManObj(ptr noundef %54, i32 noundef %57)
  store ptr %58, ptr %6, align 8, !tbaa !60
  %59 = icmp ne ptr %58, null
  br label %60

60:                                               ; preds = %51, %46, %40
  %61 = phi i1 [ false, %46 ], [ false, %40 ], [ %59, %51 ]
  br i1 %61, label %62, label %139

62:                                               ; preds = %60
  %63 = load ptr, ptr %3, align 8, !tbaa !57
  %64 = getelementptr inbounds nuw %struct.Vta_Obj_t_, ptr %63, i32 0, i32 3
  %65 = load i32, ptr %64, align 4
  %66 = lshr i32 %65, 30
  %67 = and i32 %66, 1
  %68 = icmp ne i32 %67, 0
  br i1 %68, label %70, label %69

69:                                               ; preds = %62
  br label %136

70:                                               ; preds = %62
  %71 = load ptr, ptr %2, align 8, !tbaa !37
  %72 = load ptr, ptr %3, align 8, !tbaa !57
  %73 = load ptr, ptr %6, align 8, !tbaa !60
  call void @Vta_ObjPreds(ptr noundef %71, ptr noundef %72, ptr noundef %73, ptr noundef %4, ptr noundef %5)
  %74 = load ptr, ptr %6, align 8, !tbaa !60
  %75 = call i32 @Gia_ObjIsAnd(ptr noundef %74)
  %76 = icmp ne i32 %75, 0
  br i1 %76, label %77, label %96

77:                                               ; preds = %70
  %78 = load ptr, ptr %3, align 8, !tbaa !57
  %79 = getelementptr inbounds nuw %struct.Vta_Obj_t_, ptr %78, i32 0, i32 3
  %80 = load i32, ptr %79, align 4
  %81 = lshr i32 %80, 28
  %82 = and i32 %81, 3
  %83 = icmp eq i32 %82, 2
  br i1 %83, label %84, label %85

84:                                               ; preds = %77
  br label %95

85:                                               ; preds = %77
  %86 = load ptr, ptr %3, align 8, !tbaa !57
  %87 = getelementptr inbounds nuw %struct.Vta_Obj_t_, ptr %86, i32 0, i32 3
  %88 = load i32, ptr %87, align 4
  %89 = lshr i32 %88, 28
  %90 = and i32 %89, 3
  %91 = icmp eq i32 %90, 1
  br i1 %91, label %92, label %93

92:                                               ; preds = %85
  br label %94

93:                                               ; preds = %85
  br label %94

94:                                               ; preds = %93, %92
  br label %95

95:                                               ; preds = %94, %84
  br label %135

96:                                               ; preds = %70
  %97 = load ptr, ptr %2, align 8, !tbaa !37
  %98 = getelementptr inbounds nuw %struct.Vta_Man_t_, ptr %97, i32 0, i32 0
  %99 = load ptr, ptr %98, align 8, !tbaa !39
  %100 = load ptr, ptr %6, align 8, !tbaa !60
  %101 = call i32 @Gia_ObjIsRo(ptr noundef %99, ptr noundef %100)
  %102 = icmp ne i32 %101, 0
  br i1 %102, label %103, label %134

103:                                              ; preds = %96
  %104 = load ptr, ptr %2, align 8, !tbaa !37
  %105 = getelementptr inbounds nuw %struct.Vta_Man_t_, ptr %104, i32 0, i32 0
  %106 = load ptr, ptr %105, align 8, !tbaa !39
  %107 = load ptr, ptr %6, align 8, !tbaa !60
  %108 = call ptr @Gia_ObjRoToRi(ptr noundef %106, ptr noundef %107)
  store ptr %108, ptr %6, align 8, !tbaa !60
  %109 = load ptr, ptr %3, align 8, !tbaa !57
  %110 = getelementptr inbounds nuw %struct.Vta_Obj_t_, ptr %109, i32 0, i32 1
  %111 = load i32, ptr %110, align 4, !tbaa !64
  %112 = icmp eq i32 %111, 0
  br i1 %112, label %113, label %114

113:                                              ; preds = %103
  br label %133

114:                                              ; preds = %103
  %115 = load ptr, ptr %3, align 8, !tbaa !57
  %116 = getelementptr inbounds nuw %struct.Vta_Obj_t_, ptr %115, i32 0, i32 3
  %117 = load i32, ptr %116, align 4
  %118 = lshr i32 %117, 28
  %119 = and i32 %118, 3
  %120 = icmp eq i32 %119, 1
  br i1 %120, label %121, label %122

121:                                              ; preds = %114
  br label %132

122:                                              ; preds = %114
  %123 = load ptr, ptr %3, align 8, !tbaa !57
  %124 = getelementptr inbounds nuw %struct.Vta_Obj_t_, ptr %123, i32 0, i32 3
  %125 = load i32, ptr %124, align 4
  %126 = lshr i32 %125, 28
  %127 = and i32 %126, 3
  %128 = icmp eq i32 %127, 2
  br i1 %128, label %129, label %130

129:                                              ; preds = %122
  br label %131

130:                                              ; preds = %122
  br label %131

131:                                              ; preds = %130, %129
  br label %132

132:                                              ; preds = %131, %121
  br label %133

133:                                              ; preds = %132, %113
  br label %134

134:                                              ; preds = %133, %96
  br label %135

135:                                              ; preds = %134, %95
  br label %136

136:                                              ; preds = %135, %69
  %137 = load i32, ptr %7, align 4, !tbaa !8
  %138 = add nsw i32 %137, 1
  store i32 %138, ptr %7, align 4, !tbaa !8
  br label %40, !llvm.loop !103

139:                                              ; preds = %60
  call void @llvm.lifetime.end.p0(i64 4, ptr %7) #13
  call void @llvm.lifetime.end.p0(i64 8, ptr %6) #13
  call void @llvm.lifetime.end.p0(i64 8, ptr %5) #13
  call void @llvm.lifetime.end.p0(i64 8, ptr %4) #13
  call void @llvm.lifetime.end.p0(i64 8, ptr %3) #13
  ret void
}