; Function Attrs: nofree norecurse nosync nounwind memory(readwrite, inaccessiblemem: none) uwtable
define void @Vta_ManSatVerify(ptr noundef readonly captures(none) %0) local_unnamed_addr #9 {
  %2 = alloca ptr, align 8
  %3 = alloca ptr, align 8
  call void @llvm.lifetime.start.p0(i64 8, ptr nonnull %2) #28
  call void @llvm.lifetime.start.p0(i64 8, ptr nonnull %3) #28
  %4 = getelementptr inbounds nuw i8, ptr %0, i64 16
  %5 = load i32, ptr %4, align 8, !tbaa !61
  %6 = icmp sgt i32 %5, 1
  br i1 %6, label %.lr.ph, label %.critedge2

.lr.ph:                                           ; preds = %1
  %7 = getelementptr inbounds nuw i8, ptr %0, i64 40
  %8 = getelementptr inbounds nuw i8, ptr %0, i64 120
  br label %11

.critedge.preheader:                              ; preds = %11
  %9 = getelementptr inbounds nuw i8, ptr %0, i64 40
  %10 = icmp sgt i32 %22, 1
  br i1 %10, label %.lr.ph45, label %.critedge2

11:                                               ; preds = %.lr.ph, %11
  %indvars.iv = phi i64 [ 1, %.lr.ph ], [ %indvars.iv.next, %11 ]
  %12 = load ptr, ptr %7, align 8, !tbaa !62
  %13 = load ptr, ptr %8, align 8, !tbaa !66
  %14 = getelementptr i8, ptr %13, i64 288
  %.val37 = load ptr, ptr %14, align 8, !tbaa !67
  %15 = getelementptr inbounds nuw i32, ptr %.val37, i64 %indvars.iv
  %16 = load i32, ptr %15, align 4, !tbaa !10
  %.not42 = icmp eq i32 %16, 1
  %17 = select i1 %.not42, i32 536870912, i32 268435456
  %18 = getelementptr inbounds nuw %struct.Vta_Obj_t_, ptr %12, i64 %indvars.iv, i32 3
  %19 = load i32, ptr %18, align 4
  %20 = and i32 %19, -805306369
  %21 = or disjoint i32 %20, %17
  store i32 %21, ptr %18, align 4
  %indvars.iv.next = add nuw nsw i64 %indvars.iv, 1
  %22 = load i32, ptr %4, align 8, !tbaa !61
  %23 = sext i32 %22 to i64
  %24 = icmp slt i64 %indvars.iv.next, %23
  br i1 %24, label %11, label %.critedge.preheader, !llvm.loop !93

.lr.ph45:                                         ; preds = %.critedge.preheader, %Gia_ObjIsRo.exit.thread
  %25 = phi i32 [ %38, %Gia_ObjIsRo.exit.thread ], [ %22, %.critedge.preheader ]
  %indvars.iv47 = phi i64 [ %indvars.iv.next48, %Gia_ObjIsRo.exit.thread ], [ 1, %.critedge.preheader ]
  %26 = load ptr, ptr %9, align 8, !tbaa !62
  %27 = getelementptr inbounds nuw %struct.Vta_Obj_t_, ptr %26, i64 %indvars.iv47
  %28 = load ptr, ptr %0, align 8, !tbaa !30
  %29 = load i32, ptr %27, align 4, !tbaa !64
  %30 = getelementptr i8, ptr %28, i64 32
  %.val = load ptr, ptr %30, align 8, !tbaa !63
  %31 = sext i32 %29 to i64
  %32 = getelementptr inbounds %struct.Gia_Obj_t_, ptr %.val, i64 %31
  %.not32 = icmp eq ptr %.val, null
  br i1 %.not32, label %.critedge2, label %33

33:                                               ; preds = %.lr.ph45
  %34 = getelementptr inbounds nuw i8, ptr %27, i64 12
  %35 = load i32, ptr %34, align 4
  %36 = and i32 %35, 1073741824
  %.not33 = icmp eq i32 %36, 0
  br i1 %.not33, label %Gia_ObjIsRo.exit.thread, label %37

37:                                               ; preds = %33
  call fastcc void @Vta_ObjPreds(ptr noundef nonnull %0, ptr noundef nonnull %27, ptr noundef nonnull %32, ptr noundef %2, ptr noundef %3)
  %.pre = load i32, ptr %4, align 8, !tbaa !61
  br label %Gia_ObjIsRo.exit.thread

Gia_ObjIsRo.exit.thread:                          ; preds = %37, %33
  %38 = phi i32 [ %.pre, %37 ], [ %25, %33 ]
  %indvars.iv.next48 = add nuw nsw i64 %indvars.iv47, 1
  %39 = sext i32 %38 to i64
  %40 = icmp slt i64 %indvars.iv.next48, %39
  br i1 %40, label %.lr.ph45, label %.critedge2, !llvm.loop !94

.critedge2:                                       ; preds = %.lr.ph45, %Gia_ObjIsRo.exit.thread, %1, %.critedge.preheader
  call void @llvm.lifetime.end.p0(i64 8, ptr nonnull %3) #28
  call void @llvm.lifetime.end.p0(i64 8, ptr nonnull %2) #28
  ret void
}